target datalayout = "e-m:e-p270:32:32-p271:32:32-p272:64:64-i64:64-i128:128-f80:128-n8:16:32:64-S128"
target triple = "x86_64-pc-linux-gnu"

%"class.icu_77::RegexMatcher" = type { %"class.icu_77::UObject", ptr, ptr, ptr, ptr, ptr, i64, i32, i64, i64, i64, i64, i64, i64, i64, i64, i8, i8, i8, i64, i64, i64, i64, i8, i8, ptr, ptr, ptr, [8 x i64], i32, i32, i32, i32, ptr, ptr, ptr, ptr, i8, i8, i32, ptr, ptr }
%"class.icu_77::UObject" = type { ptr }
%"class.icu_77::RegexStaticSets" = type { [8 x i8], [13 x %"class.icu_77::UnicodeSet"], [13 x %"struct.icu_77::Regex8BitSet"], [3 x %"class.icu_77::UnicodeSet"], %"class.icu_77::UnicodeSet", ptr, ptr }
%"struct.icu_77::Regex8BitSet" = type { [32 x i8] }
%"class.icu_77::UnicodeSet" = type <{ %"class.icu_77::UnicodeFilter", ptr, i32, i32, i8, [7 x i8], ptr, ptr, i32, [4 x i8], ptr, i32, [4 x i8], ptr, ptr, [25 x i32], [4 x i8] }>
%"class.icu_77::UnicodeFilter" = type { %"class.icu_77::UnicodeFunctor", %"class.icu_77::UnicodeMatcher" }
%"class.icu_77::UnicodeFunctor" = type { %"class.icu_77::UObject" }
%"class.icu_77::UnicodeMatcher" = type { ptr }
%struct.UText = type { i32, i32, i32, i32, i64, i32, i32, i64, i32, i32, ptr, ptr, ptr, ptr, ptr, ptr, ptr, ptr, i64, i32, i32, i64, i32, i32 }

@_ZN6icu_7715RegexStaticSets11gStaticSetsE = external global ptr, align 8

; Function Attrs: mustprogress uwtable
define noundef signext i8 @_ZN6icu_7712RegexMatcher19isChunkWordBoundaryEi(ptr noundef nonnull align 8 dereferenceable(336) %0, i32 noundef %1) #1 align 2 {
  %3 = alloca i8, align 1
  %4 = alloca ptr, align 8
  %5 = alloca i32, align 4
  %6 = alloca i8, align 1
  %7 = alloca i8, align 1
  %8 = alloca ptr, align 8
  %9 = alloca i32, align 4
  %10 = alloca i16, align 2
  %11 = alloca i32, align 4
  %12 = alloca i8, align 1
  %13 = alloca i32, align 4
  %14 = alloca i16, align 2
  store ptr %0, ptr %4, align 8, !tbaa !23
  store i32 %1, ptr %5, align 4, !tbaa !14
  %15 = load ptr, ptr %4, align 8
  call void @llvm.lifetime.start.p0(i64 1, ptr %6) #11
  store i8 0, ptr %6, align 1, !tbaa !126
  call void @llvm.lifetime.start.p0(i64 1, ptr %7) #11
  store i8 0, ptr %7, align 1, !tbaa !126
  call void @llvm.lifetime.start.p0(i64 8, ptr %8) #11
  %16 = getelementptr inbounds nuw %"class.icu_77::RegexMatcher", ptr %15, i32 0, i32 4
  %17 = load ptr, ptr %16, align 8, !tbaa !87
  %18 = getelementptr inbounds nuw %struct.UText, ptr %17, i32 0, i32 10
  %19 = load ptr, ptr %18, align 8, !tbaa !108
  store ptr %19, ptr %8, align 8, !tbaa !112
  %20 = load i32, ptr %5, align 4, !tbaa !14
  %21 = sext i32 %20 to i64
  %22 = getelementptr inbounds nuw %"class.icu_77::RegexMatcher", ptr %15, i32 0, i32 13
  %23 = load i64, ptr %22, align 8, !tbaa !61
  %24 = icmp sge i64 %21, %23
  br i1 %24, label %25, label %27

25:                                               ; preds = %2
  %26 = getelementptr inbounds nuw %"class.icu_77::RegexMatcher", ptr %15, i32 0, i32 23
  store i8 1, ptr %26, align 8, !tbaa !71
  br label %113

27:                                               ; preds = %2
  call void @llvm.lifetime.start.p0(i64 4, ptr %9) #11
  br label %28

28:                                               ; preds = %27
  %29 = load ptr, ptr %8, align 8, !tbaa !112
  %30 = load i32, ptr %5, align 4, !tbaa !14
  %31 = sext i32 %30 to i64
  %32 = getelementptr inbounds i16, ptr %29, i64 %31
  %33 = load i16, ptr %32, align 2, !tbaa !113
  %34 = zext i16 %33 to i32
  store i32 %34, ptr %9, align 4, !tbaa !14
  %35 = load i32, ptr %9, align 4, !tbaa !14
  %36 = and i32 %35, -2048
  %37 = icmp eq i32 %36, 55296
  br i1 %37, label %38, label %92

38:                                               ; preds = %28
  call void @llvm.lifetime.start.p0(i64 2, ptr %10) #11
  %39 = load i32, ptr %9, align 4, !tbaa !14
  %40 = and i32 %39, 1024
  %41 = icmp eq i32 %40, 0
  br i1 %41, label %42, label %67

42:                                               ; preds = %38
  %43 = load i32, ptr %5, align 4, !tbaa !14
  %44 = add nsw i32 %43, 1
  %45 = sext i32 %44 to i64
  %46 = getelementptr inbounds nuw %"class.icu_77::RegexMatcher", ptr %15, i32 0, i32 13
  %47 = load i64, ptr %46, align 8, !tbaa !61
  %48 = icmp ne i64 %45, %47
  br i1 %48, label %49, label %66

49:                                               ; preds = %42
  %50 = load ptr, ptr %8, align 8, !tbaa !112
  %51 = load i32, ptr %5, align 4, !tbaa !14
  %52 = add nsw i32 %51, 1
  %53 = sext i32 %52 to i64
  %54 = getelementptr inbounds i16, ptr %50, i64 %53
  %55 = load i16, ptr %54, align 2, !tbaa !113
  store i16 %55, ptr %10, align 2, !tbaa !144
  %56 = zext i16 %55 to i32
  %57 = and i32 %56, -1024
  %58 = icmp eq i32 %57, 56320
  br i1 %58, label %59, label %66

59:                                               ; preds = %49
  %60 = load i32, ptr %9, align 4, !tbaa !14
  %61 = shl i32 %60, 10
  %62 = load i16, ptr %10, align 2, !tbaa !144
  %63 = zext i16 %62 to i32
  %64 = add nsw i32 %61, %63
  %65 = sub nsw i32 %64, 56613888
  store i32 %65, ptr %9, align 4, !tbaa !14
  br label %66

66:                                               ; preds = %59, %49, %42
  br label %91

67:                                               ; preds = %38
  %68 = load i32, ptr %5, align 4, !tbaa !14
  %69 = sext i32 %68 to i64
  %70 = getelementptr inbounds nuw %"class.icu_77::RegexMatcher", ptr %15, i32 0, i32 12
  %71 = load i64, ptr %70, align 8, !tbaa !60
  %72 = icmp sgt i64 %69, %71
  br i1 %72, label %73, label %90

73:                                               ; preds = %67
  %74 = load ptr, ptr %8, align 8, !tbaa !112
  %75 = load i32, ptr %5, align 4, !tbaa !14
  %76 = sub nsw i32 %75, 1
  %77 = sext i32 %76 to i64
  %78 = getelementptr inbounds i16, ptr %74, i64 %77
  %79 = load i16, ptr %78, align 2, !tbaa !113
  store i16 %79, ptr %10, align 2, !tbaa !144
  %80 = zext i16 %79 to i32
  %81 = and i32 %80, -1024
  %82 = icmp eq i32 %81, 55296
  br i1 %82, label %83, label %90

83:                                               ; preds = %73
  %84 = load i16, ptr %10, align 2, !tbaa !144
  %85 = zext i16 %84 to i32
  %86 = shl i32 %85, 10
  %87 = load i32, ptr %9, align 4, !tbaa !14
  %88 = add nsw i32 %86, %87
  %89 = sub nsw i32 %88, 56613888
  store i32 %89, ptr %9, align 4, !tbaa !14
  br label %90

90:                                               ; preds = %83, %73, %67
  br label %91

91:                                               ; preds = %90, %66
  call void @llvm.lifetime.end.p0(i64 2, ptr %10) #11
  br label %92

92:                                               ; preds = %91, %28
  br label %93

93:                                               ; preds = %92
  br label %94

94:                                               ; preds = %93
  %95 = load i32, ptr %9, align 4, !tbaa !14
  %96 = call signext i8 @u_hasBinaryProperty_77(i32 noundef %95, i32 noundef 11)
  %97 = icmp ne i8 %96, 0
  br i1 %97, label %103, label %98

98:                                               ; preds = %94
  %99 = load i32, ptr %9, align 4, !tbaa !14
  %100 = call signext i8 @u_charType_77(i32 noundef %99)
  %101 = sext i8 %100 to i32
  %102 = icmp eq i32 %101, 16
  br i1 %102, label %103, label %104

103:                                              ; preds = %98, %94
  store i8 0, ptr %3, align 1
  store i32 1, ptr %11, align 4
  br label %110

104:                                              ; preds = %98
  %105 = load ptr, ptr @_ZN6icu_7715RegexStaticSets11gStaticSetsE, align 8, !tbaa !39
  %106 = getelementptr inbounds nuw %"class.icu_77::RegexStaticSets", ptr %105, i32 0, i32 1
  %107 = getelementptr inbounds nuw [13 x %"class.icu_77::UnicodeSet"], ptr %106, i64 0, i64 1
  %108 = load i32, ptr %9, align 4, !tbaa !14
  %109 = call noundef signext i8 @_ZNK6icu_7710UnicodeSet8containsEi(ptr noundef nonnull align 8 dereferenceable(200) %107, i32 noundef %108)
  store i8 %109, ptr %7, align 1, !tbaa !126
  store i32 0, ptr %11, align 4
  br label %110

110:                                              ; preds = %104, %103
  call void @llvm.lifetime.end.p0(i64 4, ptr %9) #11
  %111 = load i32, ptr %11, align 4
  switch i32 %111, label %188 [
    i32 0, label %112
  ]

112:                                              ; preds = %110
  br label %113

113:                                              ; preds = %112, %25
  call void @llvm.lifetime.start.p0(i64 1, ptr %12) #11
  store i8 0, ptr %12, align 1, !tbaa !126
  br label %114

114:                                              ; preds = %179, %113
  %115 = load i32, ptr %5, align 4, !tbaa !14
  %116 = sext i32 %115 to i64
  %117 = getelementptr inbounds nuw %"class.icu_77::RegexMatcher", ptr %15, i32 0, i32 12
  %118 = load i64, ptr %117, align 8, !tbaa !60
  %119 = icmp sle i64 %116, %118
  br i1 %119, label %120, label %121

120:                                              ; preds = %114
  br label %180

121:                                              ; preds = %114
  call void @llvm.lifetime.start.p0(i64 4, ptr %13) #11
  br label %122

122:                                              ; preds = %121
  %123 = load ptr, ptr %8, align 8, !tbaa !112
  %124 = load i32, ptr %5, align 4, !tbaa !14
  %125 = add nsw i32 %124, -1
  store i32 %125, ptr %5, align 4, !tbaa !14
  %126 = sext i32 %125 to i64
  %127 = getelementptr inbounds i16, ptr %123, i64 %126
  %128 = load i16, ptr %127, align 2, !tbaa !113
  %129 = zext i16 %128 to i32
  store i32 %129, ptr %13, align 4, !tbaa !14
  %130 = load i32, ptr %13, align 4, !tbaa !14
  %131 = and i32 %130, -1024
  %132 = icmp eq i32 %131, 56320
  br i1 %132, label %133, label %159

133:                                              ; preds = %122
  call void @llvm.lifetime.start.p0(i64 2, ptr %14) #11
  %134 = load i32, ptr %5, align 4, !tbaa !14
  %135 = sext i32 %134 to i64
  %136 = getelementptr inbounds nuw %"class.icu_77::RegexMatcher", ptr %15, i32 0, i32 12
  %137 = load i64, ptr %136, align 8, !tbaa !60
  %138 = icmp sgt i64 %135, %137
  br i1 %138, label %139, label %158

139:                                              ; preds = %133
  %140 = load ptr, ptr %8, align 8, !tbaa !112
  %141 = load i32, ptr %5, align 4, !tbaa !14
  %142 = sub nsw i32 %141, 1
  %143 = sext i32 %142 to i64
  %144 = getelementptr inbounds i16, ptr %140, i64 %143
  %145 = load i16, ptr %144, align 2, !tbaa !113
  store i16 %145, ptr %14, align 2, !tbaa !144
  %146 = zext i16 %145 to i32
  %147 = and i32 %146, -1024
  %148 = icmp eq i32 %147, 55296
  br i1 %148, label %149, label %158

149:                                              ; preds = %139
  %150 = load i32, ptr %5, align 4, !tbaa !14
  %151 = add nsw i32 %150, -1
  store i32 %151, ptr %5, align 4, !tbaa !14
  %152 = load i16, ptr %14, align 2, !tbaa !144
  %153 = zext i16 %152 to i32
  %154 = shl i32 %153, 10
  %155 = load i32, ptr %13, align 4, !tbaa !14
  %156 = add nsw i32 %154, %155
  %157 = sub nsw i32 %156, 56613888
  store i32 %157, ptr %13, align 4, !tbaa !14
  br label %158

158:                                              ; preds = %149, %139, %133
  call void @llvm.lifetime.end.p0(i64 2, ptr %14) #11
  br label %159

159:                                              ; preds = %158, %122
  br label %160

160:                                              ; preds = %159
  br label %161

161:                                              ; preds = %160
  %162 = load i32, ptr %13, align 4, !tbaa !14
  %163 = call signext i8 @u_hasBinaryProperty_77(i32 noundef %162, i32 noundef 11)
  %164 = icmp ne i8 %163, 0
  br i1 %164, label %176, label %165

165:                                              ; preds = %161
  %166 = load i32, ptr %13, align 4, !tbaa !14
  %167 = call signext i8 @u_charType_77(i32 noundef %166)
  %168 = sext i8 %167 to i32
  %169 = icmp eq i32 %168, 16
  br i1 %169, label %176, label %170

170:                                              ; preds = %165
  %171 = load ptr, ptr @_ZN6icu_7715RegexStaticSets11gStaticSetsE, align 8, !tbaa !39
  %172 = getelementptr inbounds nuw %"class.icu_77::RegexStaticSets", ptr %171, i32 0, i32 1
  %173 = getelementptr inbounds nuw [13 x %"class.icu_77::UnicodeSet"], ptr %172, i64 0, i64 1
  %174 = load i32, ptr %13, align 4, !tbaa !14
  %175 = call noundef signext i8 @_ZNK6icu_7710UnicodeSet8containsEi(ptr noundef nonnull align 8 dereferenceable(200) %173, i32 noundef %174)
  store i8 %175, ptr %12, align 1, !tbaa !126
  store i32 4, ptr %11, align 4
  br label %177

176:                                              ; preds = %165, %161
  store i32 0, ptr %11, align 4
  br label %177

177:                                              ; preds = %176, %170
  call void @llvm.lifetime.end.p0(i64 4, ptr %13) #11
  %178 = load i32, ptr %11, align 4
  switch i32 %178, label %190 [
    i32 0, label %179
    i32 4, label %180
  ]

179:                                              ; preds = %177
  br label %114, !llvm.loop !198

180:                                              ; preds = %177, %120
  %181 = load i8, ptr %7, align 1, !tbaa !126
  %182 = sext i8 %181 to i32
  %183 = load i8, ptr %12, align 1, !tbaa !126
  %184 = sext i8 %183 to i32
  %185 = xor i32 %182, %184
  %186 = trunc i32 %185 to i8
  store i8 %186, ptr %6, align 1, !tbaa !126
  %187 = load i8, ptr %6, align 1, !tbaa !126
  store i8 %187, ptr %3, align 1
  store i32 1, ptr %11, align 4
  call void @llvm.lifetime.end.p0(i64 1, ptr %12) #11
  br label %188

188:                                              ; preds = %180, %110
  call void @llvm.lifetime.end.p0(i64 8, ptr %8) #11
  call void @llvm.lifetime.end.p0(i64 1, ptr %7) #11
  call void @llvm.lifetime.end.p0(i64 1, ptr %6) #11
  %189 = load i8, ptr %3, align 1
  ret i8 %189

190:                                              ; preds = %177
  unreachable
}