; Function Attrs: mustprogress uwtable
define noundef signext i8 @_ZN6icu_7712RegexMatcher19isChunkWordBoundaryEi(ptr noundef nonnull align 8 captures(none) dereferenceable(336) %0, i32 noundef %1) local_unnamed_addr #1 align 2 {
  %3 = getelementptr inbounds nuw i8, ptr %0, i64 32
  %4 = load ptr, ptr %3, align 8, !tbaa !77
  %5 = getelementptr inbounds nuw i8, ptr %4, i64 48
  %6 = load ptr, ptr %5, align 8, !tbaa !88
  %7 = sext i32 %1 to i64
  %8 = getelementptr inbounds nuw i8, ptr %0, i64 104
  %9 = load i64, ptr %8, align 8, !tbaa !73
  %.not = icmp sgt i64 %9, %7
  br i1 %.not, label %12, label %10

10:                                               ; preds = %2
  %11 = getelementptr inbounds nuw i8, ptr %0, i64 168
  store i8 1, ptr %11, align 8, !tbaa !32
  br label %57

12:                                               ; preds = %2
  %13 = getelementptr inbounds i16, ptr %6, i64 %7
  %14 = load i16, ptr %13, align 2, !tbaa !93
  %15 = zext i16 %14 to i32
  %16 = and i32 %15, 63488
  %17 = icmp eq i32 %16, 55296
  br i1 %17, label %18, label %48

18:                                               ; preds = %12
  %19 = and i32 %15, 1024
  %20 = icmp eq i32 %19, 0
  br i1 %20, label %21, label %34

21:                                               ; preds = %18
  %22 = add nsw i32 %1, 1
  %23 = sext i32 %22 to i64
  %.not53 = icmp eq i64 %9, %23
  br i1 %.not53, label %48, label %24

24:                                               ; preds = %21
  %25 = getelementptr inbounds i16, ptr %6, i64 %23
  %26 = load i16, ptr %25, align 2, !tbaa !93
  %27 = zext i16 %26 to i32
  %28 = and i32 %27, 64512
  %29 = icmp eq i32 %28, 56320
  br i1 %29, label %30, label %48

30:                                               ; preds = %24
  %31 = shl nuw nsw i32 %15, 10
  %32 = add nsw i32 %31, -56613888
  %33 = add nuw nsw i32 %32, %27
  br label %48

34:                                               ; preds = %18
  %35 = getelementptr inbounds nuw i8, ptr %0, i64 96
  %36 = load i64, ptr %35, align 8, !tbaa !72
  %37 = icmp slt i64 %36, %7
  br i1 %37, label %38, label %48

38:                                               ; preds = %34
  %39 = getelementptr i8, ptr %13, i64 -2
  %40 = load i16, ptr %39, align 2, !tbaa !93
  %41 = zext i16 %40 to i32
  %42 = and i32 %41, 64512
  %43 = icmp eq i32 %42, 55296
  br i1 %43, label %44, label %48

44:                                               ; preds = %38
  %45 = shl nuw nsw i32 %41, 10
  %46 = add nuw nsw i32 %15, -56613888
  %47 = add nsw i32 %46, %45
  br label %48

48:                                               ; preds = %30, %24, %21, %44, %38, %34, %12
  %.144 = phi i32 [ %15, %12 ], [ %33, %30 ], [ %15, %24 ], [ %15, %21 ], [ %47, %44 ], [ %15, %38 ], [ %15, %34 ]
  %49 = tail call signext i8 @u_hasBinaryProperty_77(i32 noundef %.144, i32 noundef 11)
  %.not54 = icmp eq i8 %49, 0
  br i1 %.not54, label %50, label %.thread

50:                                               ; preds = %48
  %51 = tail call signext i8 @u_charType_77(i32 noundef %.144)
  %52 = icmp eq i8 %51, 16
  br i1 %52, label %.thread, label %53

53:                                               ; preds = %50
  %54 = load ptr, ptr @_ZN6icu_7715RegexStaticSets11gStaticSetsE, align 8, !tbaa !43
  %55 = getelementptr inbounds nuw i8, ptr %54, i64 208
  %56 = tail call noundef signext i8 @_ZNK6icu_7710UnicodeSet8containsEi(ptr noundef nonnull align 8 dereferenceable(200) %55, i32 noundef %.144)
  br label %57

57:                                               ; preds = %53, %10
  %.048 = phi i8 [ 0, %10 ], [ %56, %53 ]
  %58 = getelementptr inbounds nuw i8, ptr %0, i64 96
  %invariant.gep = getelementptr i8, ptr %6, i64 -4
  %59 = load i64, ptr %58, align 8, !tbaa !72
  %.not5563 = icmp slt i64 %59, %7
  br i1 %.not5563, label %.lr.ph, label %.loopexit

.lr.ph:                                           ; preds = %57, %88
  %60 = phi i64 [ %90, %88 ], [ %59, %57 ]
  %61 = phi i64 [ %89, %88 ], [ %7, %57 ]
  %.04564 = phi i32 [ %.247, %88 ], [ %1, %57 ]
  %62 = add nsw i32 %.04564, -1
  %63 = sext i32 %62 to i64
  %64 = getelementptr inbounds i16, ptr %6, i64 %63
  %65 = load i16, ptr %64, align 2, !tbaa !93
  %66 = zext i16 %65 to i32
  %67 = and i32 %66, 64512
  %68 = icmp eq i32 %67, 56320
  %69 = icmp slt i64 %60, %63
  %or.cond = and i1 %69, %68
  br i1 %or.cond, label %70, label %80

70:                                               ; preds = %.lr.ph
  %gep = getelementptr i16, ptr %invariant.gep, i64 %61
  %71 = load i16, ptr %gep, align 2, !tbaa !93
  %72 = zext i16 %71 to i32
  %73 = and i32 %72, 64512
  %74 = icmp eq i32 %73, 55296
  br i1 %74, label %75, label %80

75:                                               ; preds = %70
  %76 = add nsw i32 %.04564, -2
  %77 = shl nuw nsw i32 %72, 10
  %78 = add nuw nsw i32 %66, -56613888
  %79 = add nsw i32 %78, %77
  br label %80

80:                                               ; preds = %70, %75, %.lr.ph
  %.247 = phi i32 [ %62, %.lr.ph ], [ %76, %75 ], [ %62, %70 ]
  %.138 = phi i32 [ %66, %.lr.ph ], [ %79, %75 ], [ %66, %70 ]
  %81 = tail call signext i8 @u_hasBinaryProperty_77(i32 noundef %.138, i32 noundef 11)
  %.not56 = icmp eq i8 %81, 0
  br i1 %.not56, label %82, label %88

82:                                               ; preds = %80
  %83 = tail call signext i8 @u_charType_77(i32 noundef %.138)
  %84 = icmp eq i8 %83, 16
  br i1 %84, label %88, label %.thread59

.thread59:                                        ; preds = %82
  %85 = load ptr, ptr @_ZN6icu_7715RegexStaticSets11gStaticSetsE, align 8, !tbaa !43
  %86 = getelementptr inbounds nuw i8, ptr %85, i64 208
  %87 = tail call noundef signext i8 @_ZNK6icu_7710UnicodeSet8containsEi(ptr noundef nonnull align 8 dereferenceable(200) %86, i32 noundef %.138)
  br label %.loopexit

88:                                               ; preds = %80, %82
  %89 = sext i32 %.247 to i64
  %90 = load i64, ptr %58, align 8, !tbaa !72
  %.not55 = icmp slt i64 %90, %89
  br i1 %.not55, label %.lr.ph, label %.loopexit

.loopexit:                                        ; preds = %88, %57, %.thread59
  %.140 = phi i8 [ %87, %.thread59 ], [ 0, %57 ], [ 0, %88 ]
  %91 = xor i8 %.140, %.048
  br label %.thread

.thread:                                          ; preds = %48, %50, %.loopexit
  %.1 = phi i8 [ %91, %.loopexit ], [ 0, %50 ], [ 0, %48 ]
  ret i8 %.1
}